target datalayout = "e-m:e-p270:32:32-p271:32:32-p272:64:64-i64:64-i128:128-f80:128-n8:16:32:64-S128"
target triple = "x86_64-pc-linux-gnu"

%struct.HeapTupleHeaderData = type { %union.anon, %struct.ItemPointerData, i16, i16, i8, [0 x i8] }
%union.anon = type { %struct.HeapTupleFields }
%struct.HeapTupleFields = type { i32, i32, %union.anon.0 }
%union.anon.0 = type { i32 }
%struct.ItemPointerData = type { %struct.BlockIdData, i16 }
%struct.BlockIdData = type { i16, i16 }

; Function Attrs: inlinehint nounwind uwtable
define internal i32 @HeapTupleHeaderGetRawXmax(ptr noundef %0) #1 {
  %2 = alloca ptr, align 8
  store ptr %0, ptr %2, align 8
  %3 = load ptr, ptr %2, align 8
  %4 = getelementptr inbounds nuw %struct.HeapTupleHeaderData, ptr %3, i32 0, i32 0
  %5 = getelementptr inbounds nuw %struct.HeapTupleFields, ptr %4, i32 0, i32 1
  %6 = load i32, ptr %5, align 4
  ret i32 %6
}

; Function Attrs: nounwind uwtable
define dso_local zeroext i1 @HeapTupleHeaderIsOnlyLocked(ptr noundef %0) #0 {
  %2 = alloca i1, align 1
  %3 = alloca ptr, align 8
  %4 = alloca i32, align 4
  %5 = alloca i32, align 4
  store ptr %0, ptr %3, align 8
  call void @llvm.lifetime.start.p0(i64 4, ptr %4) #4
  %6 = load ptr, ptr %3, align 8
  %7 = getelementptr inbounds nuw %struct.HeapTupleHeaderData, ptr %6, i32 0, i32 3
  %8 = load i16, ptr %7, align 4
  %9 = zext i16 %8 to i32
  %10 = and i32 %9, 2048
  %11 = icmp ne i32 %10, 0
  br i1 %11, label %12, label %13

12:                                               ; preds = %1
  store i1 true, ptr %2, align 1
  store i32 1, ptr %5, align 4
  br label %49

13:                                               ; preds = %1
  %14 = load ptr, ptr %3, align 8
  %15 = getelementptr inbounds nuw %struct.HeapTupleHeaderData, ptr %14, i32 0, i32 3
  %16 = load i16, ptr %15, align 4
  %17 = zext i16 %16 to i32
  %18 = and i32 %17, 128
  %19 = icmp ne i32 %18, 0
  br i1 %19, label %20, label %21

20:                                               ; preds = %13
  store i1 true, ptr %2, align 1
  store i32 1, ptr %5, align 4
  br label %49

21:                                               ; preds = %13
  %22 = load ptr, ptr %3, align 8
  %23 = call i32 @HeapTupleHeaderGetRawXmax(ptr noundef %22)
  %24 = icmp ne i32 %23, 0
  br i1 %24, label %26, label %25

25:                                               ; preds = %21
  store i1 true, ptr %2, align 1
  store i32 1, ptr %5, align 4
  br label %49

26:                                               ; preds = %21
  %27 = load ptr, ptr %3, align 8
  %28 = getelementptr inbounds nuw %struct.HeapTupleHeaderData, ptr %27, i32 0, i32 3
  %29 = load i16, ptr %28, align 4
  %30 = zext i16 %29 to i32
  %31 = and i32 %30, 4096
  %32 = icmp ne i32 %31, 0
  br i1 %32, label %34, label %33

33:                                               ; preds = %26
  store i1 false, ptr %2, align 1
  store i32 1, ptr %5, align 4
  br label %49

34:                                               ; preds = %26
  %35 = load ptr, ptr %3, align 8
  %36 = call i32 @HeapTupleGetUpdateXid(ptr noundef %35)
  store i32 %36, ptr %4, align 4
  %37 = load i32, ptr %4, align 4
  %38 = call zeroext i1 @TransactionIdIsCurrentTransactionId(i32 noundef %37)
  br i1 %38, label %39, label %40

39:                                               ; preds = %34
  store i1 false, ptr %2, align 1
  store i32 1, ptr %5, align 4
  br label %49

40:                                               ; preds = %34
  %41 = load i32, ptr %4, align 4
  %42 = call zeroext i1 @TransactionIdIsInProgress(i32 noundef %41)
  br i1 %42, label %43, label %44

43:                                               ; preds = %40
  store i1 false, ptr %2, align 1
  store i32 1, ptr %5, align 4
  br label %49

44:                                               ; preds = %40
  %45 = load i32, ptr %4, align 4
  %46 = call zeroext i1 @TransactionIdDidCommit(i32 noundef %45)
  br i1 %46, label %47, label %48

47:                                               ; preds = %44
  store i1 false, ptr %2, align 1
  store i32 1, ptr %5, align 4
  br label %49

48:                                               ; preds = %44
  store i1 true, ptr %2, align 1
  store i32 1, ptr %5, align 4
  br label %49

49:                                               ; preds = %48, %47, %43, %39, %33, %25, %20, %12
  call void @llvm.lifetime.end.p0(i64 4, ptr %4) #4
  %50 = load i1, ptr %2, align 1
  ret i1 %50
}