; Function Attrs: nounwind uwtable
define dso_local zeroext i1 @HeapTupleHeaderIsOnlyLocked(ptr noundef %0) local_unnamed_addr #0 {
  %2 = getelementptr inbounds nuw i8, ptr %0, i64 20
  %3 = load i16, ptr %2, align 4
  %4 = and i16 %3, 2176
  %or.cond = icmp eq i16 %4, 0
  br i1 %or.cond, label %5, label %16

5:                                                ; preds = %1
  %6 = getelementptr i8, ptr %0, i64 4
  %.val = load i32, ptr %6, align 4
  %.not9 = icmp eq i32 %.val, 0
  br i1 %.not9, label %16, label %7

7:                                                ; preds = %5
  %8 = and i16 %3, 4096
  %.not10 = icmp eq i16 %8, 0
  br i1 %.not10, label %16, label %9

9:                                                ; preds = %7
  %10 = tail call i32 @HeapTupleGetUpdateXid(ptr noundef nonnull %0) #4
  %11 = tail call zeroext i1 @TransactionIdIsCurrentTransactionId(i32 noundef %10) #4
  br i1 %11, label %16, label %12

12:                                               ; preds = %9
  %13 = tail call zeroext i1 @TransactionIdIsInProgress(i32 noundef %10) #4
  br i1 %13, label %16, label %14

14:                                               ; preds = %12
  %15 = tail call zeroext i1 @TransactionIdDidCommit(i32 noundef %10) #4
  %not. = xor i1 %15, true
  br label %16

16:                                               ; preds = %14, %12, %9, %7, %5, %1
  %.0 = phi i1 [ true, %1 ], [ true, %5 ], [ false, %7 ], [ false, %9 ], [ false, %12 ], [ %not., %14 ]
  ret i1 %.0
}